target datalayout = "e-m:e-p270:32:32-p271:32:32-p272:64:64-i64:64-i128:128-f80:128-n8:16:32:64-S128"
target triple = "x86_64-pc-linux-gnu"

%struct.DdManager = type { %struct.DdNode, ptr, ptr, ptr, ptr, ptr, ptr, ptr, i32, i32, double, double, double, i32, i32, i32, i32, i32, i32, ptr, ptr, %struct.DdSubtable, i32, i32, i32, i32, i32, i32, i32, double, i32, i32, i32, ptr, i64, double, i32, ptr, ptr, ptr, ptr, ptr, ptr, ptr, i32, ptr, ptr, ptr, ptr, ptr, ptr, i32, i32, i32, double, i32, i32, i32, i32, double, double, i32, i32, i32, i32, i32, i32, i32, i32, i32, ptr, ptr, i32, i32, i32, i32, i32, i32, ptr, ptr, ptr, ptr, ptr, ptr, ptr, ptr, i32, i64, i64, i64, i32, i64, i64, double, double, double, double, double, double, i32, ptr, ptr, i64 }
%struct.DdNode = type { i32, i32, ptr, %union.anon.1, i64 }
%union.anon.1 = type { %struct.DdChildren }
%struct.DdChildren = type { ptr, ptr }
%struct.DdSubtable = type { ptr, i32, i32, i32, i32, i32, i32, i32, i32, i32, i32, i32 }

; Function Attrs: nounwind uwtable
define ptr @Abc_NtkAddToBdd_rec(ptr noundef %0, ptr noundef %1, i32 noundef %2, i32 noundef %3, ptr noundef %4) #0 {
  %6 = alloca ptr, align 8
  %7 = alloca ptr, align 8
  %8 = alloca ptr, align 8
  %9 = alloca i32, align 4
  %10 = alloca i32, align 4
  %11 = alloca ptr, align 8
  %12 = alloca ptr, align 8
  %13 = alloca ptr, align 8
  %14 = alloca ptr, align 8
  %15 = alloca ptr, align 8
  store ptr %0, ptr %7, align 8
  store ptr %1, ptr %8, align 8
  store i32 %2, ptr %9, align 4
  store i32 %3, ptr %10, align 4
  store ptr %4, ptr %11, align 8
  %16 = load ptr, ptr %11, align 8
  %17 = load ptr, ptr %8, align 8
  %18 = call i32 @stmm_find_or_add(ptr noundef %16, ptr noundef %17, ptr noundef %15)
  %19 = icmp ne i32 %18, 0
  br i1 %19, label %20, label %23

20:                                               ; preds = %5
  %21 = load ptr, ptr %15, align 8
  %22 = load ptr, ptr %21, align 8
  store ptr %22, ptr %6, align 8
  br label %81

23:                                               ; preds = %5
  %24 = load ptr, ptr %8, align 8
  %25 = ptrtoint ptr %24 to i64
  %26 = and i64 %25, -2
  %27 = inttoptr i64 %26 to ptr
  %28 = getelementptr inbounds %struct.DdNode, ptr %27, i32 0, i32 0
  %29 = load i32, ptr %28, align 8
  %30 = icmp eq i32 %29, 2147483647
  br i1 %30, label %31, label %49

31:                                               ; preds = %23
  %32 = load ptr, ptr %7, align 8
  %33 = load ptr, ptr %8, align 8
  %34 = ptrtoint ptr %33 to i64
  %35 = and i64 %34, -2
  %36 = inttoptr i64 %35 to ptr
  %37 = getelementptr inbounds %struct.DdNode, ptr %36, i32 0, i32 3
  %38 = load double, ptr %37, align 8
  %39 = fptosi double %38 to i32
  %40 = load i32, ptr %10, align 4
  %41 = load ptr, ptr %7, align 8
  %42 = getelementptr inbounds %struct.DdManager, ptr %41, i32 0, i32 41
  %43 = load ptr, ptr %42, align 8
  %44 = load i32, ptr %9, align 4
  %45 = sext i32 %44 to i64
  %46 = getelementptr inbounds ptr, ptr %43, i64 %45
  %47 = call ptr @Extra_bddBitsToCube(ptr noundef %32, i32 noundef %39, i32 noundef %40, ptr noundef %46, i32 noundef 1)
  store ptr %47, ptr %14, align 8
  %48 = load ptr, ptr %14, align 8
  call void @Cudd_Ref(ptr noundef %48)
  br label %78

49:                                               ; preds = %23
  %50 = load ptr, ptr %7, align 8
  %51 = load ptr, ptr %8, align 8
  %52 = getelementptr inbounds %struct.DdNode, ptr %51, i32 0, i32 3
  %53 = getelementptr inbounds %struct.DdChildren, ptr %52, i32 0, i32 1
  %54 = load ptr, ptr %53, align 8
  %55 = load i32, ptr %9, align 4
  %56 = load i32, ptr %10, align 4
  %57 = load ptr, ptr %11, align 8
  %58 = call ptr @Abc_NtkAddToBdd_rec(ptr noundef %50, ptr noundef %54, i32 noundef %55, i32 noundef %56, ptr noundef %57)
  store ptr %58, ptr %12, align 8
  %59 = load ptr, ptr %7, align 8
  %60 = load ptr, ptr %8, align 8
  %61 = getelementptr inbounds %struct.DdNode, ptr %60, i32 0, i32 3
  %62 = getelementptr inbounds %struct.DdChildren, ptr %61, i32 0, i32 0
  %63 = load ptr, ptr %62, align 8
  %64 = load i32, ptr %9, align 4
  %65 = load i32, ptr %10, align 4
  %66 = load ptr, ptr %11, align 8
  %67 = call ptr @Abc_NtkAddToBdd_rec(ptr noundef %59, ptr noundef %63, i32 noundef %64, i32 noundef %65, ptr noundef %66)
  store ptr %67, ptr %13, align 8
  %68 = load ptr, ptr %7, align 8
  %69 = load ptr, ptr %7, align 8
  %70 = load ptr, ptr %8, align 8
  %71 = getelementptr inbounds %struct.DdNode, ptr %70, i32 0, i32 0
  %72 = load i32, ptr %71, align 8
  %73 = call ptr @Cudd_bddIthVar(ptr noundef %69, i32 noundef %72)
  %74 = load ptr, ptr %13, align 8
  %75 = load ptr, ptr %12, align 8
  %76 = call ptr @Cudd_bddIte(ptr noundef %68, ptr noundef %73, ptr noundef %74, ptr noundef %75)
  store ptr %76, ptr %14, align 8
  %77 = load ptr, ptr %14, align 8
  call void @Cudd_Ref(ptr noundef %77)
  br label %78

78:                                               ; preds = %49, %31
  %79 = load ptr, ptr %14, align 8
  %80 = load ptr, ptr %15, align 8
  store ptr %79, ptr %80, align 8
  store ptr %79, ptr %6, align 8
  br label %81

81:                                               ; preds = %78, %20
  %82 = load ptr, ptr %6, align 8
  ret ptr %82
}