; Function Attrs: nounwind uwtable
define ptr @Abc_NtkAddToBdd_rec(ptr noundef %0, ptr noundef %1, i32 noundef %2, i32 noundef %3, ptr noundef %4) local_unnamed_addr #0 {
  %6 = alloca ptr, align 8
  %7 = call i32 @stmm_find_or_add(ptr noundef %4, ptr noundef %1, ptr noundef nonnull %6) #18
  %.not = icmp eq i32 %7, 0
  br i1 %.not, label %11, label %8

8:                                                ; preds = %5
  %9 = load ptr, ptr %6, align 8
  %10 = load ptr, ptr %9, align 8
  br label %38

11:                                               ; preds = %5
  %12 = ptrtoint ptr %1 to i64
  %13 = and i64 %12, -2
  %14 = inttoptr i64 %13 to ptr
  %15 = load i32, ptr %14, align 8
  %16 = icmp eq i32 %15, 2147483647
  br i1 %16, label %17, label %26

17:                                               ; preds = %11
  %18 = getelementptr inbounds nuw i8, ptr %14, i64 16
  %19 = load double, ptr %18, align 8
  %20 = fptosi double %19 to i32
  %21 = getelementptr inbounds nuw i8, ptr %0, i64 344
  %22 = load ptr, ptr %21, align 8
  %23 = sext i32 %2 to i64
  %24 = getelementptr inbounds ptr, ptr %22, i64 %23
  %25 = call ptr @Extra_bddBitsToCube(ptr noundef %0, i32 noundef %20, i32 noundef %3, ptr noundef %24, i32 noundef 1) #18
  br label %36

26:                                               ; preds = %11
  %27 = getelementptr inbounds nuw i8, ptr %1, i64 16
  %28 = getelementptr inbounds nuw i8, ptr %1, i64 24
  %29 = load ptr, ptr %28, align 8
  %30 = call ptr @Abc_NtkAddToBdd_rec(ptr noundef %0, ptr noundef %29, i32 noundef %2, i32 noundef %3, ptr noundef %4)
  %31 = load ptr, ptr %27, align 8
  %32 = call ptr @Abc_NtkAddToBdd_rec(ptr noundef %0, ptr noundef %31, i32 noundef %2, i32 noundef %3, ptr noundef %4)
  %33 = load i32, ptr %1, align 8
  %34 = call ptr @Cudd_bddIthVar(ptr noundef %0, i32 noundef %33) #18
  %35 = call ptr @Cudd_bddIte(ptr noundef %0, ptr noundef %34, ptr noundef %32, ptr noundef %30) #18
  br label %36

36:                                               ; preds = %26, %17
  %.sink = phi ptr [ %35, %26 ], [ %25, %17 ]
  call void @Cudd_Ref(ptr noundef %.sink) #18
  %37 = load ptr, ptr %6, align 8
  store ptr %.sink, ptr %37, align 8
  br label %38

38:                                               ; preds = %36, %8
  %.026 = phi ptr [ %10, %8 ], [ %.sink, %36 ]
  ret ptr %.026
}